; Function Attrs: mustprogress nounwind uwtable
define void @_ZN6casadi10FiniteDiffD2Ev(ptr noundef nonnull align 8 dereferenceable(1392) %0) unnamed_addr #5 align 2 personality ptr @__gxx_personality_v0 {
  store ptr getelementptr inbounds ({ [119 x ptr] }, ptr @_ZTVN6casadi10FiniteDiffE, i64 0, i32 0, i64 2), ptr %0, align 8
  invoke void @_ZN6casadi13ProtoFunction9clear_memEv(ptr noundef nonnull align 8 dereferenceable(168) %0)
          to label %2 unwind label %3

2:                                                ; preds = %1
  tail call void @_ZN6casadi16FunctionInternalD2Ev(ptr noundef nonnull align 8 dereferenceable(1304) %0) #21
  ret void

3:                                                ; preds = %1
  %4 = landingpad { ptr, i32 }
          catch ptr null
  %5 = extractvalue { ptr, i32 } %4, 0
  tail call void @__clang_call_terminate(ptr %5) #23
  unreachable
}